target datalayout = "e-m:e-p270:32:32-p271:32:32-p272:64:64-i64:64-i128:128-f80:128-n8:16:32:64-S128"
target triple = "x86_64-pc-linux-gnu"

%struct.Aig_MmFixed_t_ = type { i32, i32, i32, i32, ptr, i32, i32, i32, ptr, i32, i32 }

; Function Attrs: nounwind uwtable
define void @Aig_MmFixedRestart(ptr noundef %0) #0 {
  %2 = alloca ptr, align 8
  %3 = alloca i32, align 4
  %4 = alloca ptr, align 8
  %5 = alloca i32, align 4
  store ptr %0, ptr %2, align 8, !tbaa !7
  call void @llvm.lifetime.start.p0(i64 4, ptr %3) #7
  call void @llvm.lifetime.start.p0(i64 8, ptr %4) #7
  %6 = load ptr, ptr %2, align 8, !tbaa !7
  %7 = getelementptr inbounds nuw %struct.Aig_MmFixed_t_, ptr %6, i32 0, i32 7
  %8 = load i32, ptr %7, align 8, !tbaa !19
  %9 = icmp eq i32 %8, 0
  br i1 %9, label %10, label %11

10:                                               ; preds = %1
  store i32 1, ptr %5, align 4
  br label %104

11:                                               ; preds = %1
  store i32 1, ptr %3, align 4, !tbaa !3
  br label %12

12:                                               ; preds = %43, %11
  %13 = load i32, ptr %3, align 4, !tbaa !3
  %14 = load ptr, ptr %2, align 8, !tbaa !7
  %15 = getelementptr inbounds nuw %struct.Aig_MmFixed_t_, ptr %14, i32 0, i32 7
  %16 = load i32, ptr %15, align 8, !tbaa !19
  %17 = icmp slt i32 %13, %16
  br i1 %17, label %18, label %46

18:                                               ; preds = %12
  %19 = load ptr, ptr %2, align 8, !tbaa !7
  %20 = getelementptr inbounds nuw %struct.Aig_MmFixed_t_, ptr %19, i32 0, i32 8
  %21 = load ptr, ptr %20, align 8, !tbaa !20
  %22 = load i32, ptr %3, align 4, !tbaa !3
  %23 = sext i32 %22 to i64
  %24 = getelementptr inbounds ptr, ptr %21, i64 %23
  %25 = load ptr, ptr %24, align 8, !tbaa !24
  %26 = icmp ne ptr %25, null
  br i1 %26, label %27, label %41

27:                                               ; preds = %18
  %28 = load ptr, ptr %2, align 8, !tbaa !7
  %29 = getelementptr inbounds nuw %struct.Aig_MmFixed_t_, ptr %28, i32 0, i32 8
  %30 = load ptr, ptr %29, align 8, !tbaa !20
  %31 = load i32, ptr %3, align 4, !tbaa !3
  %32 = sext i32 %31 to i64
  %33 = getelementptr inbounds ptr, ptr %30, i64 %32
  %34 = load ptr, ptr %33, align 8, !tbaa !24
  call void @free(ptr noundef %34) #7
  %35 = load ptr, ptr %2, align 8, !tbaa !7
  %36 = getelementptr inbounds nuw %struct.Aig_MmFixed_t_, ptr %35, i32 0, i32 8
  %37 = load ptr, ptr %36, align 8, !tbaa !20
  %38 = load i32, ptr %3, align 4, !tbaa !3
  %39 = sext i32 %38 to i64
  %40 = getelementptr inbounds ptr, ptr %37, i64 %39
  store ptr null, ptr %40, align 8, !tbaa !24
  br label %42

41:                                               ; preds = %18
  br label %42

42:                                               ; preds = %41, %27
  br label %43

43:                                               ; preds = %42
  %44 = load i32, ptr %3, align 4, !tbaa !3
  %45 = add nsw i32 %44, 1
  store i32 %45, ptr %3, align 4, !tbaa !3
  br label %12, !llvm.loop !28

46:                                               ; preds = %12
  %47 = load ptr, ptr %2, align 8, !tbaa !7
  %48 = getelementptr inbounds nuw %struct.Aig_MmFixed_t_, ptr %47, i32 0, i32 7
  store i32 1, ptr %48, align 8, !tbaa !19
  %49 = load ptr, ptr %2, align 8, !tbaa !7
  %50 = getelementptr inbounds nuw %struct.Aig_MmFixed_t_, ptr %49, i32 0, i32 8
  %51 = load ptr, ptr %50, align 8, !tbaa !20
  %52 = getelementptr inbounds ptr, ptr %51, i64 0
  %53 = load ptr, ptr %52, align 8, !tbaa !24
  store ptr %53, ptr %4, align 8, !tbaa !24
  store i32 1, ptr %3, align 4, !tbaa !3
  br label %54

54:                                               ; preds = %74, %46
  %55 = load i32, ptr %3, align 4, !tbaa !3
  %56 = load ptr, ptr %2, align 8, !tbaa !7
  %57 = getelementptr inbounds nuw %struct.Aig_MmFixed_t_, ptr %56, i32 0, i32 5
  %58 = load i32, ptr %57, align 8, !tbaa !17
  %59 = icmp slt i32 %55, %58
  br i1 %59, label %60, label %77

60:                                               ; preds = %54
  %61 = load ptr, ptr %4, align 8, !tbaa !24
  %62 = load ptr, ptr %2, align 8, !tbaa !7
  %63 = getelementptr inbounds nuw %struct.Aig_MmFixed_t_, ptr %62, i32 0, i32 0
  %64 = load i32, ptr %63, align 8, !tbaa !10
  %65 = sext i32 %64 to i64
  %66 = getelementptr inbounds i8, ptr %61, i64 %65
  %67 = load ptr, ptr %4, align 8, !tbaa !24
  store ptr %66, ptr %67, align 8, !tbaa !24
  %68 = load ptr, ptr %2, align 8, !tbaa !7
  %69 = getelementptr inbounds nuw %struct.Aig_MmFixed_t_, ptr %68, i32 0, i32 0
  %70 = load i32, ptr %69, align 8, !tbaa !10
  %71 = load ptr, ptr %4, align 8, !tbaa !24
  %72 = sext i32 %70 to i64
  %73 = getelementptr inbounds i8, ptr %71, i64 %72
  store ptr %73, ptr %4, align 8, !tbaa !24
  br label %74

74:                                               ; preds = %60
  %75 = load i32, ptr %3, align 4, !tbaa !3
  %76 = add nsw i32 %75, 1
  store i32 %76, ptr %3, align 4, !tbaa !3
  br label %54, !llvm.loop !29

77:                                               ; preds = %54
  %78 = load ptr, ptr %4, align 8, !tbaa !24
  store ptr null, ptr %78, align 8, !tbaa !24
  %79 = load ptr, ptr %2, align 8, !tbaa !7
  %80 = getelementptr inbounds nuw %struct.Aig_MmFixed_t_, ptr %79, i32 0, i32 8
  %81 = load ptr, ptr %80, align 8, !tbaa !20
  %82 = getelementptr inbounds ptr, ptr %81, i64 0
  %83 = load ptr, ptr %82, align 8, !tbaa !24
  %84 = load ptr, ptr %2, align 8, !tbaa !7
  %85 = getelementptr inbounds nuw %struct.Aig_MmFixed_t_, ptr %84, i32 0, i32 4
  store ptr %83, ptr %85, align 8, !tbaa !16
  %86 = load ptr, ptr %2, align 8, !tbaa !7
  %87 = getelementptr inbounds nuw %struct.Aig_MmFixed_t_, ptr %86, i32 0, i32 0
  %88 = load i32, ptr %87, align 8, !tbaa !10
  %89 = load ptr, ptr %2, align 8, !tbaa !7
  %90 = getelementptr inbounds nuw %struct.Aig_MmFixed_t_, ptr %89, i32 0, i32 5
  %91 = load i32, ptr %90, align 8, !tbaa !17
  %92 = mul nsw i32 %88, %91
  %93 = load ptr, ptr %2, align 8, !tbaa !7
  %94 = getelementptr inbounds nuw %struct.Aig_MmFixed_t_, ptr %93, i32 0, i32 10
  store i32 %92, ptr %94, align 4, !tbaa !22
  %95 = load ptr, ptr %2, align 8, !tbaa !7
  %96 = getelementptr inbounds nuw %struct.Aig_MmFixed_t_, ptr %95, i32 0, i32 9
  store i32 0, ptr %96, align 8, !tbaa !21
  %97 = load ptr, ptr %2, align 8, !tbaa !7
  %98 = getelementptr inbounds nuw %struct.Aig_MmFixed_t_, ptr %97, i32 0, i32 5
  %99 = load i32, ptr %98, align 8, !tbaa !17
  %100 = load ptr, ptr %2, align 8, !tbaa !7
  %101 = getelementptr inbounds nuw %struct.Aig_MmFixed_t_, ptr %100, i32 0, i32 1
  store i32 %99, ptr %101, align 4, !tbaa !14
  %102 = load ptr, ptr %2, align 8, !tbaa !7
  %103 = getelementptr inbounds nuw %struct.Aig_MmFixed_t_, ptr %102, i32 0, i32 2
  store i32 0, ptr %103, align 8, !tbaa !15
  store i32 0, ptr %5, align 4
  br label %104

104:                                              ; preds = %77, %10
  call void @llvm.lifetime.end.p0(i64 8, ptr %4) #7
  call void @llvm.lifetime.end.p0(i64 4, ptr %3) #7
  %105 = load i32, ptr %5, align 4
  switch i32 %105, label %107 [
    i32 0, label %106
    i32 1, label %106
  ]

106:                                              ; preds = %104, %104
  ret void

107:                                              ; preds = %104
  unreachable
}