; Function Attrs: nounwind uwtable
define void @Aig_MmFixedRestart(ptr noundef captures(none) %0) local_unnamed_addr #2 {
  %2 = getelementptr inbounds nuw i8, ptr %0, i64 32
  %3 = load i32, ptr %2, align 8, !tbaa !14
  %4 = icmp eq i32 %3, 0
  br i1 %4, label %35, label %.preheader

.preheader:                                       ; preds = %1
  %5 = icmp sgt i32 %3, 1
  %6 = getelementptr inbounds nuw i8, ptr %0, i64 40
  %.pre = load ptr, ptr %6, align 8, !tbaa !13
  br i1 %5, label %.lr.ph, label %._crit_edge

.lr.ph:                                           ; preds = %.preheader, %14
  %7 = phi i32 [ %15, %14 ], [ %3, %.preheader ]
  %8 = phi ptr [ %16, %14 ], [ %.pre, %.preheader ]
  %indvars.iv = phi i64 [ %indvars.iv.next, %14 ], [ 1, %.preheader ]
  %9 = getelementptr inbounds nuw ptr, ptr %8, i64 %indvars.iv
  %10 = load ptr, ptr %9, align 8, !tbaa !18
  %.not = icmp eq ptr %10, null
  br i1 %.not, label %14, label %11

11:                                               ; preds = %.lr.ph
  tail call void @free(ptr noundef nonnull %10) #15
  %12 = load ptr, ptr %6, align 8, !tbaa !13
  %13 = getelementptr inbounds nuw ptr, ptr %12, i64 %indvars.iv
  store ptr null, ptr %13, align 8, !tbaa !18
  %.pre39 = load i32, ptr %2, align 8, !tbaa !14
  br label %14

14:                                               ; preds = %11, %.lr.ph
  %15 = phi i32 [ %.pre39, %11 ], [ %7, %.lr.ph ]
  %16 = phi ptr [ %12, %11 ], [ %8, %.lr.ph ]
  %indvars.iv.next = add nuw nsw i64 %indvars.iv, 1
  %17 = sext i32 %15 to i64
  %18 = icmp slt i64 %indvars.iv.next, %17
  br i1 %18, label %.lr.ph, label %._crit_edge, !llvm.loop !24

._crit_edge:                                      ; preds = %14, %.preheader
  %19 = phi ptr [ %.pre, %.preheader ], [ %16, %14 ]
  store i32 1, ptr %2, align 8, !tbaa !14
  %20 = load ptr, ptr %19, align 8, !tbaa !18
  %21 = getelementptr inbounds nuw i8, ptr %0, i64 24
  %22 = load i32, ptr %21, align 8, !tbaa !11
  %23 = icmp sgt i32 %22, 1
  %.pre41 = load i32, ptr %0, align 8, !tbaa !3
  br i1 %23, label %.lr.ph35, label %._crit_edge36

.lr.ph35:                                         ; preds = %._crit_edge
  %24 = sext i32 %.pre41 to i64
  br label %25

25:                                               ; preds = %.lr.ph35, %25
  %.033 = phi ptr [ %20, %.lr.ph35 ], [ %26, %25 ]
  %.132 = phi i32 [ 1, %.lr.ph35 ], [ %27, %25 ]
  %26 = getelementptr inbounds i8, ptr %.033, i64 %24
  store ptr %26, ptr %.033, align 8, !tbaa !18
  %27 = add nuw nsw i32 %.132, 1
  %exitcond.not = icmp eq i32 %27, %22
  br i1 %exitcond.not, label %._crit_edge36, label %25, !llvm.loop !25

._crit_edge36:                                    ; preds = %25, %._crit_edge
  %.0.lcssa = phi ptr [ %20, %._crit_edge ], [ %26, %25 ]
  store ptr null, ptr %.0.lcssa, align 8, !tbaa !18
  %28 = load ptr, ptr %19, align 8, !tbaa !18
  %29 = getelementptr inbounds nuw i8, ptr %0, i64 16
  store ptr %28, ptr %29, align 8, !tbaa !22
  %30 = mul nsw i32 %.pre41, %22
  %31 = getelementptr inbounds nuw i8, ptr %0, i64 52
  store i32 %30, ptr %31, align 4, !tbaa !17
  %32 = getelementptr inbounds nuw i8, ptr %0, i64 48
  store i32 0, ptr %32, align 8, !tbaa !26
  %33 = getelementptr inbounds nuw i8, ptr %0, i64 4
  store i32 %22, ptr %33, align 4, !tbaa !21
  %34 = getelementptr inbounds nuw i8, ptr %0, i64 8
  store i32 0, ptr %34, align 8, !tbaa !15
  br label %35

35:                                               ; preds = %1, %._crit_edge36
  ret void
}